target datalayout = "e-m:e-p270:32:32-p271:32:32-p272:64:64-i64:64-i128:128-f80:128-n8:16:32:64-S128"
target triple = "x86_64-pc-linux-gnu"

%struct.AVCodecContext = type { ptr, i32, i32, ptr, i32, i32, ptr, ptr, ptr, i64, i32, i32, ptr, i32, %struct.AVRational, %struct.AVRational, %struct.AVRational, i32, i32, i32, i32, i32, %struct.AVRational, i32, i32, i32, i32, i32, i32, i32, i32, i32, i32, i32, ptr, ptr, i32, float, float, float, float, float, float, float, float, float, i32, i32, i32, i32, i32, i32, i32, i32, i32, i32, i32, i32, ptr, ptr, ptr, i32, i32, i32, i32, i32, i32, i32, i32, i32, i32, %struct.AVChannelLayout, i32, i32, i32, i32, i32, i32, i32, i32, ptr, i32, i32, i32, float, float, i32, i32, i32, i32, i32, ptr, i64, i64, float, float, i32, i32, ptr, ptr, i32, i32, i32, i32, i32, ptr, ptr, ptr, ptr, i32, i32, [8 x i64], i32, i32, i32, i32, i32, i32, i32, ptr, ptr, i32, i32, i32, i32, i32, i32, i32, i32, i32, i32, ptr, ptr, i32, i32, ptr, ptr, ptr, ptr, i32, i32, i64, i32, i32, i64, ptr, i64, ptr, i32, ptr, i32 }
%struct.AVRational = type { i32, i32 }
%struct.AVChannelLayout = type { i32, i32, %union.anon.1, ptr }
%union.anon.1 = type { i64 }
%struct.EXRContext = type { ptr, i32, i32, i32, i32, i32, float, ptr, ptr, %struct.PutByteContext, ptr, %struct.Float2HalfTables }
%struct.PutByteContext = type { ptr, ptr, ptr, i32 }
%struct.Float2HalfTables = type { [512 x i16], [512 x i8] }
%struct.EXRScanlineData = type { ptr, i32, ptr, i32, ptr, i32, i64 }

; Function Attrs: cold nounwind optsize uwtable
define internal i32 @encode_close(ptr noundef %0) #0 {
  %2 = alloca ptr, align 8
  %3 = alloca ptr, align 8
  %4 = alloca i32, align 4
  %5 = alloca ptr, align 8
  store ptr %0, ptr %2, align 8, !tbaa !4
  call void @llvm.lifetime.start.p0(i64 8, ptr %3) #8
  %6 = load ptr, ptr %2, align 8, !tbaa !4
  %7 = getelementptr inbounds nuw %struct.AVCodecContext, ptr %6, i32 0, i32 6
  %8 = load ptr, ptr %7, align 8, !tbaa !9
  store ptr %8, ptr %3, align 8, !tbaa !29
  call void @llvm.lifetime.start.p0(i64 4, ptr %4) #8
  store i32 0, ptr %4, align 4, !tbaa !53
  br label %9

9:                                                ; preds = %36, %1
  %10 = load i32, ptr %4, align 4, !tbaa !53
  %11 = load ptr, ptr %3, align 8, !tbaa !29
  %12 = getelementptr inbounds nuw %struct.EXRContext, ptr %11, i32 0, i32 4
  %13 = load i32, ptr %12, align 4, !tbaa !42
  %14 = icmp slt i32 %10, %13
  br i1 %14, label %15, label %20

15:                                               ; preds = %9
  %16 = load ptr, ptr %3, align 8, !tbaa !29
  %17 = getelementptr inbounds nuw %struct.EXRContext, ptr %16, i32 0, i32 10
  %18 = load ptr, ptr %17, align 8, !tbaa !43
  %19 = icmp ne ptr %18, null
  br label %20

20:                                               ; preds = %15, %9
  %21 = phi i1 [ false, %9 ], [ %19, %15 ]
  br i1 %21, label %23, label %22

22:                                               ; preds = %20
  call void @llvm.lifetime.end.p0(i64 4, ptr %4) #8
  br label %39

23:                                               ; preds = %20
  call void @llvm.lifetime.start.p0(i64 8, ptr %5) #8
  %24 = load ptr, ptr %3, align 8, !tbaa !29
  %25 = getelementptr inbounds nuw %struct.EXRContext, ptr %24, i32 0, i32 10
  %26 = load ptr, ptr %25, align 8, !tbaa !43
  %27 = load i32, ptr %4, align 4, !tbaa !53
  %28 = sext i32 %27 to i64
  %29 = getelementptr inbounds %struct.EXRScanlineData, ptr %26, i64 %28
  store ptr %29, ptr %5, align 8, !tbaa !79
  %30 = load ptr, ptr %5, align 8, !tbaa !79
  %31 = getelementptr inbounds nuw %struct.EXRScanlineData, ptr %30, i32 0, i32 4
  call void @av_freep(ptr noundef %31)
  %32 = load ptr, ptr %5, align 8, !tbaa !79
  %33 = getelementptr inbounds nuw %struct.EXRScanlineData, ptr %32, i32 0, i32 0
  call void @av_freep(ptr noundef %33)
  %34 = load ptr, ptr %5, align 8, !tbaa !79
  %35 = getelementptr inbounds nuw %struct.EXRScanlineData, ptr %34, i32 0, i32 2
  call void @av_freep(ptr noundef %35)
  call void @llvm.lifetime.end.p0(i64 8, ptr %5) #8
  br label %36

36:                                               ; preds = %23
  %37 = load i32, ptr %4, align 4, !tbaa !53
  %38 = add nsw i32 %37, 1
  store i32 %38, ptr %4, align 4, !tbaa !53
  br label %9, !llvm.loop !85

39:                                               ; preds = %22
  %40 = load ptr, ptr %3, align 8, !tbaa !29
  %41 = getelementptr inbounds nuw %struct.EXRContext, ptr %40, i32 0, i32 10
  call void @av_freep(ptr noundef %41)
  call void @llvm.lifetime.end.p0(i64 8, ptr %3) #8
  ret i32 0
}