; Function Attrs: cold nounwind optsize uwtable
define internal noundef i32 @encode_close(ptr noundef readonly captures(none) %0) #0 {
  %2 = getelementptr inbounds nuw i8, ptr %0, i64 32
  %3 = load ptr, ptr %2, align 8, !tbaa !4
  %4 = getelementptr inbounds nuw i8, ptr %3, i64 80
  %5 = getelementptr inbounds nuw i8, ptr %3, i64 20
  %6 = load i32, ptr %5, align 4, !tbaa !38
  %7 = icmp sgt i32 %6, 0
  br i1 %7, label %.lr.ph, label %.critedge

.lr.ph:                                           ; preds = %1, %9
  %indvars.iv = phi i64 [ %indvars.iv.next, %9 ], [ 0, %1 ]
  %8 = load ptr, ptr %4, align 8, !tbaa !39
  %.not = icmp eq ptr %8, null
  br i1 %.not, label %.critedge, label %9

.critedge:                                        ; preds = %.lr.ph, %9, %1
  tail call void @av_freep(ptr noundef nonnull %4) #7
  ret i32 0

9:                                                ; preds = %.lr.ph
  %10 = getelementptr inbounds nuw %struct.EXRScanlineData, ptr %8, i64 %indvars.iv
  %11 = getelementptr inbounds nuw i8, ptr %10, i64 32
  tail call void @av_freep(ptr noundef nonnull %11) #7
  tail call void @av_freep(ptr noundef nonnull %10) #7
  %12 = getelementptr inbounds nuw i8, ptr %10, i64 16
  tail call void @av_freep(ptr noundef nonnull %12) #7
  %indvars.iv.next = add nuw nsw i64 %indvars.iv, 1
  %13 = load i32, ptr %5, align 4, !tbaa !38
  %14 = sext i32 %13 to i64
  %15 = icmp slt i64 %indvars.iv.next, %14
  br i1 %15, label %.lr.ph, label %.critedge, !llvm.loop !101
}